target datalayout = "e-m:e-p270:32:32-p271:32:32-p272:64:64-i64:64-i128:128-f80:128-n8:16:32:64-S128"
target triple = "x86_64-pc-linux-gnu"

@_ZL5POW10 = internal constant [10 x i32] [i32 1, i32 10, i32 100, i32 1000, i32 10000, i32 100000, i32 1000000, i32 10000000, i32 100000000, i32 1000000000], align 16

; Function Attrs: inlinehint mustprogress nounwind uwtable
define internal noundef signext i8 @_ZL9U_SUCCESS10UErrorCode(i32 noundef %0) #2 {
  %2 = alloca i32, align 4
  store i32 %0, ptr %2, align 4, !tbaa !15
  %3 = load i32, ptr %2, align 4, !tbaa !15
  %4 = icmp sle i32 %3, 0
  %5 = zext i1 %4 to i8
  ret i8 %5
}

; Function Attrs: mustprogress uwtable
define double @ucurr_getRoundingIncrementForUsage_77(ptr noundef %0, i32 noundef %1, ptr noundef %2) #1 {
  %4 = alloca double, align 8
  %5 = alloca ptr, align 8
  %6 = alloca i32, align 4
  %7 = alloca ptr, align 8
  %8 = alloca double, align 8
  %9 = alloca ptr, align 8
  %10 = alloca i32, align 4
  %11 = alloca i32, align 4
  %12 = alloca i32, align 4
  store ptr %0, ptr %5, align 8, !tbaa !39
  store i32 %1, ptr %6, align 4, !tbaa !107
  store ptr %2, ptr %7, align 8, !tbaa !22
  call void @llvm.lifetime.start.p0(i64 8, ptr %8) #12
  store double 0.000000e+00, ptr %8, align 8, !tbaa !109
  call void @llvm.lifetime.start.p0(i64 8, ptr %9) #12
  %13 = load ptr, ptr %5, align 8, !tbaa !39
  %14 = load ptr, ptr %7, align 8, !tbaa !22
  %15 = call noundef ptr @_ZL13_findMetaDataPKDsR10UErrorCode(ptr noundef %13, ptr noundef nonnull align 4 dereferenceable(4) %14)
  store ptr %15, ptr %9, align 8, !tbaa !20
  %16 = load ptr, ptr %7, align 8, !tbaa !22
  %17 = load i32, ptr %16, align 4, !tbaa !15
  %18 = call noundef signext i8 @_ZL9U_SUCCESS10UErrorCode(i32 noundef %17)
  %19 = icmp ne i8 %18, 0
  br i1 %19, label %20, label %64

20:                                               ; preds = %3
  call void @llvm.lifetime.start.p0(i64 4, ptr %10) #12
  call void @llvm.lifetime.start.p0(i64 4, ptr %11) #12
  %21 = load i32, ptr %6, align 4, !tbaa !107
  switch i32 %21, label %36 [
    i32 0, label %22
    i32 1, label %29
  ]

22:                                               ; preds = %20
  %23 = load ptr, ptr %9, align 8, !tbaa !20
  %24 = getelementptr inbounds i32, ptr %23, i64 0
  %25 = load i32, ptr %24, align 4, !tbaa !14
  store i32 %25, ptr %10, align 4, !tbaa !14
  %26 = load ptr, ptr %9, align 8, !tbaa !20
  %27 = getelementptr inbounds i32, ptr %26, i64 1
  %28 = load i32, ptr %27, align 4, !tbaa !14
  store i32 %28, ptr %11, align 4, !tbaa !14
  br label %39

29:                                               ; preds = %20
  %30 = load ptr, ptr %9, align 8, !tbaa !20
  %31 = getelementptr inbounds i32, ptr %30, i64 2
  %32 = load i32, ptr %31, align 4, !tbaa !14
  store i32 %32, ptr %10, align 4, !tbaa !14
  %33 = load ptr, ptr %9, align 8, !tbaa !20
  %34 = getelementptr inbounds i32, ptr %33, i64 3
  %35 = load i32, ptr %34, align 4, !tbaa !14
  store i32 %35, ptr %11, align 4, !tbaa !14
  br label %39

36:                                               ; preds = %20
  %37 = load ptr, ptr %7, align 8, !tbaa !22
  store i32 16, ptr %37, align 4, !tbaa !15
  %38 = load double, ptr %8, align 8, !tbaa !109
  store double %38, ptr %4, align 8
  store i32 1, ptr %12, align 4
  br label %61

39:                                               ; preds = %29, %22
  %40 = load i32, ptr %10, align 4, !tbaa !14
  %41 = icmp slt i32 %40, 0
  br i1 %41, label %45, label %42

42:                                               ; preds = %39
  %43 = load i32, ptr %10, align 4, !tbaa !14
  %44 = icmp sgt i32 %43, 9
  br i1 %44, label %45, label %47

45:                                               ; preds = %42, %39
  %46 = load ptr, ptr %7, align 8, !tbaa !22
  store i32 3, ptr %46, align 4, !tbaa !15
  br label %60

47:                                               ; preds = %42
  %48 = load i32, ptr %11, align 4, !tbaa !14
  %49 = icmp sge i32 %48, 2
  br i1 %49, label %50, label %59

50:                                               ; preds = %47
  %51 = load i32, ptr %11, align 4, !tbaa !14
  %52 = sitofp i32 %51 to double
  %53 = load i32, ptr %10, align 4, !tbaa !14
  %54 = sext i32 %53 to i64
  %55 = getelementptr inbounds [10 x i32], ptr @_ZL5POW10, i64 0, i64 %54
  %56 = load i32, ptr %55, align 4, !tbaa !14
  %57 = sitofp i32 %56 to double
  %58 = fdiv double %52, %57
  store double %58, ptr %8, align 8, !tbaa !109
  br label %59

59:                                               ; preds = %50, %47
  br label %60

60:                                               ; preds = %59, %45
  store i32 0, ptr %12, align 4
  br label %61

61:                                               ; preds = %60, %36
  call void @llvm.lifetime.end.p0(i64 4, ptr %11) #12
  call void @llvm.lifetime.end.p0(i64 4, ptr %10) #12
  %62 = load i32, ptr %12, align 4
  switch i32 %62, label %66 [
    i32 0, label %63
  ]

63:                                               ; preds = %61
  br label %64

64:                                               ; preds = %63, %3
  %65 = load double, ptr %8, align 8, !tbaa !109
  store double %65, ptr %4, align 8
  store i32 1, ptr %12, align 4
  br label %66

66:                                               ; preds = %64, %61
  call void @llvm.lifetime.end.p0(i64 8, ptr %9) #12
  call void @llvm.lifetime.end.p0(i64 8, ptr %8) #12
  %67 = load double, ptr %4, align 8
  ret double %67
}