; Function Attrs: mustprogress uwtable
define double @ucurr_getRoundingIncrementForUsage_77(ptr noundef %0, i32 noundef %1, ptr noundef nonnull %2) local_unnamed_addr #1 {
  %4 = tail call fastcc noundef ptr @_ZL13_findMetaDataPKDsR10UErrorCode(ptr noundef %0, ptr noundef nonnull align 4 dereferenceable(4) %2)
  %5 = load i32, ptr %2, align 4, !tbaa !13
  %6 = icmp sgt i32 %5, 0
  br i1 %6, label %23, label %7

7:                                                ; preds = %3
  switch i32 %1, label %22 [
    i32 0, label %10
    i32 1, label %8
  ]

8:                                                ; preds = %7
  %9 = getelementptr inbounds nuw i8, ptr %4, i64 8
  br label %10

10:                                               ; preds = %7, %8
  %.sink = phi i64 [ 12, %8 ], [ 4, %7 ]
  %.020.in = phi ptr [ %9, %8 ], [ %4, %7 ]
  %11 = getelementptr inbounds nuw i8, ptr %4, i64 %.sink
  %.019 = load i32, ptr %11, align 4, !tbaa !12
  %.020 = load i32, ptr %.020.in, align 4, !tbaa !12
  %or.cond = icmp ugt i32 %.020, 9
  br i1 %or.cond, label %12, label %13

12:                                               ; preds = %10
  store i32 3, ptr %2, align 4, !tbaa !13
  br label %23

13:                                               ; preds = %10
  %14 = icmp sgt i32 %.019, 1
  br i1 %14, label %15, label %23

15:                                               ; preds = %13
  %16 = uitofp nneg i32 %.019 to double
  %17 = zext nneg i32 %.020 to i64
  %18 = getelementptr inbounds nuw [10 x i32], ptr @_ZL5POW10, i64 0, i64 %17
  %19 = load i32, ptr %18, align 4, !tbaa !12
  %20 = sitofp i32 %19 to double
  %21 = fdiv double %16, %20
  br label %23

22:                                               ; preds = %7
  store i32 16, ptr %2, align 4, !tbaa !13
  br label %23

23:                                               ; preds = %12, %15, %13, %22, %3
  %.1 = phi double [ 0.000000e+00, %22 ], [ 0.000000e+00, %3 ], [ 0.000000e+00, %13 ], [ %21, %15 ], [ 0.000000e+00, %12 ]
  ret double %.1
}